target datalayout = "e-m:e-p270:32:32-p271:32:32-p272:64:64-i64:64-i128:128-f80:128-n8:16:32:64-S128"
target triple = "x86_64-pc-linux-gnu"

%struct.evp_cipher_info_st = type { ptr, [16 x i8] }

@.str = private unnamed_addr constant [10 x i8] c"ENCRYPTED\00", align 1
@.str.6 = private unnamed_addr constant [11 x i8] c"DEK-Info: \00", align 1
@.str.8 = private unnamed_addr constant [124 x i8] c"generated/home/dtcxzyw/WorkSpace/Projects/compilers/llvm-opt-benchmark/bench/libquic/libquic/boringssl/crypto/pem/pem_lib.c\00", align 1
@.str.10 = private unnamed_addr constant [12 x i8] c"Proc-Type: \00", align 1

; Function Attrs: nounwind uwtable
define hidden i32 @PEM_get_EVP_CIPHER_INFO(ptr noundef %0, ptr noundef %1) #0 {
  %3 = alloca i32, align 4
  %4 = alloca ptr, align 8
  %5 = alloca ptr, align 8
  %6 = alloca ptr, align 8
  %7 = alloca ptr, align 8
  %8 = alloca i8, align 1
  %9 = alloca ptr, align 8
  %10 = alloca i32, align 4
  store ptr %0, ptr %4, align 8, !tbaa !6
  store ptr %1, ptr %5, align 8, !tbaa !35
  call void @llvm.lifetime.start.p0(i64 8, ptr %6) #7
  store ptr null, ptr %6, align 8, !tbaa !37
  call void @llvm.lifetime.start.p0(i64 8, ptr %7) #7
  call void @llvm.lifetime.start.p0(i64 1, ptr %8) #7
  call void @llvm.lifetime.start.p0(i64 8, ptr %9) #7
  store ptr %4, ptr %9, align 8, !tbaa !23
  %11 = load ptr, ptr %5, align 8, !tbaa !35
  %12 = getelementptr inbounds nuw %struct.evp_cipher_info_st, ptr %11, i32 0, i32 0
  store ptr null, ptr %12, align 8, !tbaa !39
  %13 = load ptr, ptr %4, align 8, !tbaa !6
  %14 = icmp eq ptr %13, null
  br i1 %14, label %25, label %15

15:                                               ; preds = %2
  %16 = load ptr, ptr %4, align 8, !tbaa !6
  %17 = load i8, ptr %16, align 1, !tbaa !15
  %18 = sext i8 %17 to i32
  %19 = icmp eq i32 %18, 0
  br i1 %19, label %25, label %20

20:                                               ; preds = %15
  %21 = load ptr, ptr %4, align 8, !tbaa !6
  %22 = load i8, ptr %21, align 1, !tbaa !15
  %23 = sext i8 %22 to i32
  %24 = icmp eq i32 %23, 10
  br i1 %24, label %25, label %26

25:                                               ; preds = %20, %15, %2
  store i32 1, ptr %3, align 4
  store i32 1, ptr %10, align 4
  br label %138

26:                                               ; preds = %20
  %27 = load ptr, ptr %4, align 8, !tbaa !6
  %28 = call i32 @strncmp(ptr noundef %27, ptr noundef @.str.10, i64 noundef 11) #8
  %29 = icmp ne i32 %28, 0
  br i1 %29, label %30, label %31

30:                                               ; preds = %26
  call void @ERR_put_error(i32 noundef 9, i32 noundef 0, i32 noundef 109, ptr noundef @.str.8, i32 noundef 426)
  store i32 0, ptr %3, align 4
  store i32 1, ptr %10, align 4
  br label %138

31:                                               ; preds = %26
  %32 = load ptr, ptr %4, align 8, !tbaa !6
  %33 = getelementptr inbounds i8, ptr %32, i64 11
  store ptr %33, ptr %4, align 8, !tbaa !6
  %34 = load ptr, ptr %4, align 8, !tbaa !6
  %35 = load i8, ptr %34, align 1, !tbaa !15
  %36 = sext i8 %35 to i32
  %37 = icmp ne i32 %36, 52
  br i1 %37, label %38, label %39

38:                                               ; preds = %31
  store i32 0, ptr %3, align 4
  store i32 1, ptr %10, align 4
  br label %138

39:                                               ; preds = %31
  %40 = load ptr, ptr %4, align 8, !tbaa !6
  %41 = getelementptr inbounds nuw i8, ptr %40, i32 1
  store ptr %41, ptr %4, align 8, !tbaa !6
  %42 = load ptr, ptr %4, align 8, !tbaa !6
  %43 = load i8, ptr %42, align 1, !tbaa !15
  %44 = sext i8 %43 to i32
  %45 = icmp ne i32 %44, 44
  br i1 %45, label %46, label %47

46:                                               ; preds = %39
  store i32 0, ptr %3, align 4
  store i32 1, ptr %10, align 4
  br label %138

47:                                               ; preds = %39
  %48 = load ptr, ptr %4, align 8, !tbaa !6
  %49 = getelementptr inbounds nuw i8, ptr %48, i32 1
  store ptr %49, ptr %4, align 8, !tbaa !6
  %50 = load ptr, ptr %4, align 8, !tbaa !6
  %51 = call i32 @strncmp(ptr noundef %50, ptr noundef @.str, i64 noundef 9) #8
  %52 = icmp ne i32 %51, 0
  br i1 %52, label %53, label %54

53:                                               ; preds = %47
  call void @ERR_put_error(i32 noundef 9, i32 noundef 0, i32 noundef 108, ptr noundef @.str.8, i32 noundef 437)
  store i32 0, ptr %3, align 4
  store i32 1, ptr %10, align 4
  br label %138

54:                                               ; preds = %47
  br label %55

55:                                               ; preds = %68, %54
  %56 = load ptr, ptr %4, align 8, !tbaa !6
  %57 = load i8, ptr %56, align 1, !tbaa !15
  %58 = sext i8 %57 to i32
  %59 = icmp ne i32 %58, 10
  br i1 %59, label %60, label %65

60:                                               ; preds = %55
  %61 = load ptr, ptr %4, align 8, !tbaa !6
  %62 = load i8, ptr %61, align 1, !tbaa !15
  %63 = sext i8 %62 to i32
  %64 = icmp ne i32 %63, 0
  br label %65

65:                                               ; preds = %60, %55
  %66 = phi i1 [ false, %55 ], [ %64, %60 ]
  br i1 %66, label %67, label %71

67:                                               ; preds = %65
  br label %68

68:                                               ; preds = %67
  %69 = load ptr, ptr %4, align 8, !tbaa !6
  %70 = getelementptr inbounds nuw i8, ptr %69, i32 1
  store ptr %70, ptr %4, align 8, !tbaa !6
  br label %55, !llvm.loop !41

71:                                               ; preds = %65
  %72 = load ptr, ptr %4, align 8, !tbaa !6
  %73 = load i8, ptr %72, align 1, !tbaa !15
  %74 = sext i8 %73 to i32
  %75 = icmp eq i32 %74, 0
  br i1 %75, label %76, label %77

76:                                               ; preds = %71
  call void @ERR_put_error(i32 noundef 9, i32 noundef 0, i32 noundef 112, ptr noundef @.str.8, i32 noundef 442)
  store i32 0, ptr %3, align 4
  store i32 1, ptr %10, align 4
  br label %138

77:                                               ; preds = %71
  %78 = load ptr, ptr %4, align 8, !tbaa !6
  %79 = getelementptr inbounds nuw i8, ptr %78, i32 1
  store ptr %79, ptr %4, align 8, !tbaa !6
  %80 = load ptr, ptr %4, align 8, !tbaa !6
  %81 = call i32 @strncmp(ptr noundef %80, ptr noundef @.str.6, i64 noundef 10) #8
  %82 = icmp ne i32 %81, 0
  br i1 %82, label %83, label %84

83:                                               ; preds = %77
  call void @ERR_put_error(i32 noundef 9, i32 noundef 0, i32 noundef 107, ptr noundef @.str.8, i32 noundef 447)
  store i32 0, ptr %3, align 4
  store i32 1, ptr %10, align 4
  br label %138

84:                                               ; preds = %77
  %85 = load ptr, ptr %4, align 8, !tbaa !6
  %86 = getelementptr inbounds i8, ptr %85, i64 10
  store ptr %86, ptr %4, align 8, !tbaa !6
  %87 = load ptr, ptr %4, align 8, !tbaa !6
  store ptr %87, ptr %7, align 8, !tbaa !6
  br label %88

88:                                               ; preds = %111, %84
  %89 = load ptr, ptr %4, align 8, !tbaa !6
  %90 = load i8, ptr %89, align 1, !tbaa !15
  store i8 %90, ptr %8, align 1, !tbaa !15
  %91 = load i8, ptr %8, align 1, !tbaa !15
  %92 = sext i8 %91 to i32
  %93 = icmp sge i32 %92, 65
  br i1 %93, label %94, label %98

94:                                               ; preds = %88
  %95 = load i8, ptr %8, align 1, !tbaa !15
  %96 = sext i8 %95 to i32
  %97 = icmp sle i32 %96, 90
  br i1 %97, label %111, label %98

98:                                               ; preds = %94, %88
  %99 = load i8, ptr %8, align 1, !tbaa !15
  %100 = sext i8 %99 to i32
  %101 = icmp eq i32 %100, 45
  br i1 %101, label %111, label %102

102:                                              ; preds = %98
  %103 = load i8, ptr %8, align 1, !tbaa !15
  %104 = sext i8 %103 to i32
  %105 = icmp sge i32 %104, 48
  br i1 %105, label %106, label %110

106:                                              ; preds = %102
  %107 = load i8, ptr %8, align 1, !tbaa !15
  %108 = sext i8 %107 to i32
  %109 = icmp sle i32 %108, 57
  br i1 %109, label %111, label %110

110:                                              ; preds = %106, %102
  br label %114

111:                                              ; preds = %106, %98, %94
  %112 = load ptr, ptr %4, align 8, !tbaa !6
  %113 = getelementptr inbounds nuw i8, ptr %112, i32 1
  store ptr %113, ptr %4, align 8, !tbaa !6
  br label %88

114:                                              ; preds = %110
  %115 = load ptr, ptr %4, align 8, !tbaa !6
  store i8 0, ptr %115, align 1, !tbaa !15
  %116 = load ptr, ptr %7, align 8, !tbaa !6
  %117 = call ptr @cipher_by_name(ptr noundef %116)
  store ptr %117, ptr %6, align 8, !tbaa !37
  %118 = load ptr, ptr %5, align 8, !tbaa !35
  %119 = getelementptr inbounds nuw %struct.evp_cipher_info_st, ptr %118, i32 0, i32 0
  store ptr %117, ptr %119, align 8, !tbaa !39
  %120 = load i8, ptr %8, align 1, !tbaa !15
  %121 = load ptr, ptr %4, align 8, !tbaa !6
  store i8 %120, ptr %121, align 1, !tbaa !15
  %122 = load ptr, ptr %4, align 8, !tbaa !6
  %123 = getelementptr inbounds nuw i8, ptr %122, i32 1
  store ptr %123, ptr %4, align 8, !tbaa !6
  %124 = load ptr, ptr %6, align 8, !tbaa !37
  %125 = icmp eq ptr %124, null
  br i1 %125, label %126, label %127

126:                                              ; preds = %114
  call void @ERR_put_error(i32 noundef 9, i32 noundef 0, i32 noundef 114, ptr noundef @.str.8, i32 noundef 466)
  store i32 0, ptr %3, align 4
  store i32 1, ptr %10, align 4
  br label %138

127:                                              ; preds = %114
  %128 = load ptr, ptr %9, align 8, !tbaa !23
  %129 = load ptr, ptr %5, align 8, !tbaa !35
  %130 = getelementptr inbounds nuw %struct.evp_cipher_info_st, ptr %129, i32 0, i32 1
  %131 = getelementptr inbounds [16 x i8], ptr %130, i64 0, i64 0
  %132 = load ptr, ptr %6, align 8, !tbaa !37
  %133 = call i32 @EVP_CIPHER_iv_length(ptr noundef %132)
  %134 = call i32 @load_iv(ptr noundef %128, ptr noundef %131, i32 noundef %133)
  %135 = icmp ne i32 %134, 0
  br i1 %135, label %137, label %136

136:                                              ; preds = %127
  store i32 0, ptr %3, align 4
  store i32 1, ptr %10, align 4
  br label %138

137:                                              ; preds = %127
  store i32 1, ptr %3, align 4
  store i32 1, ptr %10, align 4
  br label %138

138:                                              ; preds = %137, %136, %126, %83, %76, %53, %46, %38, %30, %25
  call void @llvm.lifetime.end.p0(i64 8, ptr %9) #7
  call void @llvm.lifetime.end.p0(i64 1, ptr %8) #7
  call void @llvm.lifetime.end.p0(i64 8, ptr %7) #7
  call void @llvm.lifetime.end.p0(i64 8, ptr %6) #7
  %139 = load i32, ptr %3, align 4
  ret i32 %139
}