; Function Attrs: nounwind uwtable
define hidden range(i32 0, 2) i32 @PEM_get_EVP_CIPHER_INFO(ptr noundef %0, ptr noundef captures(none) initializes((0, 8)) %1) local_unnamed_addr #0 {
  %3 = alloca ptr, align 8
  store ptr null, ptr %1, align 8, !tbaa !24
  %4 = icmp eq ptr %0, null
  br i1 %4, label %45, label %5

5:                                                ; preds = %2
  %6 = load i8, ptr %0, align 1, !tbaa !6
  switch i8 %6, label %7 [
    i8 0, label %45
    i8 10, label %45
  ]

7:                                                ; preds = %5
  %8 = tail call i32 @strncmp(ptr noundef nonnull dereferenceable(1) %0, ptr noundef nonnull dereferenceable(12) @.str.10, i64 noundef 11) #13
  %.not = icmp eq i32 %8, 0
  br i1 %.not, label %10, label %9

9:                                                ; preds = %7
  tail call void @ERR_put_error(i32 noundef 9, i32 noundef 0, i32 noundef 109, ptr noundef nonnull @.str.8, i32 noundef 426) #12
  br label %45

10:                                               ; preds = %7
  %11 = getelementptr inbounds nuw i8, ptr %0, i64 11
  %12 = load i8, ptr %11, align 1, !tbaa !6
  %.not26 = icmp eq i8 %12, 52
  br i1 %.not26, label %13, label %45

13:                                               ; preds = %10
  %14 = getelementptr inbounds nuw i8, ptr %0, i64 12
  %15 = load i8, ptr %14, align 1, !tbaa !6
  %.not27 = icmp eq i8 %15, 44
  br i1 %.not27, label %16, label %45

16:                                               ; preds = %13
  %17 = getelementptr inbounds nuw i8, ptr %0, i64 13
  %18 = tail call i32 @strncmp(ptr noundef nonnull dereferenceable(1) %17, ptr noundef nonnull dereferenceable(10) @.str, i64 noundef 9) #13
  %.not28 = icmp eq i32 %18, 0
  br i1 %.not28, label %.preheader, label %19

19:                                               ; preds = %16
  tail call void @ERR_put_error(i32 noundef 9, i32 noundef 0, i32 noundef 108, ptr noundef nonnull @.str.8, i32 noundef 437) #12
  br label %45

.preheader:                                       ; preds = %16, %22
  %20 = phi ptr [ %23, %22 ], [ %17, %16 ]
  %21 = load i8, ptr %20, align 1, !tbaa !6
  switch i8 %21, label %22 [
    i8 0, label %24
    i8 10, label %25
  ]

22:                                               ; preds = %.preheader
  %23 = getelementptr inbounds nuw i8, ptr %20, i64 1
  br label %.preheader, !llvm.loop !27

24:                                               ; preds = %.preheader
  tail call void @ERR_put_error(i32 noundef 9, i32 noundef 0, i32 noundef 112, ptr noundef nonnull @.str.8, i32 noundef 442) #12
  br label %45

25:                                               ; preds = %.preheader
  %26 = getelementptr inbounds nuw i8, ptr %20, i64 1
  %27 = tail call i32 @strncmp(ptr noundef nonnull dereferenceable(1) %26, ptr noundef nonnull dereferenceable(11) @.str.6, i64 noundef 10) #13
  %.not31 = icmp eq i32 %27, 0
  br i1 %.not31, label %29, label %28

28:                                               ; preds = %25
  tail call void @ERR_put_error(i32 noundef 9, i32 noundef 0, i32 noundef 107, ptr noundef nonnull @.str.8, i32 noundef 447) #12
  br label %45

29:                                               ; preds = %25
  %30 = getelementptr inbounds nuw i8, ptr %20, i64 11
  br label %31

31:                                               ; preds = %31, %29
  %storemerge = phi ptr [ %30, %29 ], [ %36, %31 ]
  store ptr %storemerge, ptr %3, align 8, !tbaa !11
  %32 = load i8, ptr %storemerge, align 1, !tbaa !6
  %33 = add i8 %32, -65
  %or.cond = icmp ult i8 %33, 26
  %34 = icmp eq i8 %32, 45
  %or.cond5 = or i1 %34, %or.cond
  %35 = add i8 %32, -48
  %or.cond8 = icmp ult i8 %35, 10
  %or.cond33 = or i1 %or.cond8, %or.cond5
  %36 = getelementptr inbounds nuw i8, ptr %storemerge, i64 1
  br i1 %or.cond33, label %31, label %37

37:                                               ; preds = %31
  store i8 0, ptr %storemerge, align 1, !tbaa !6
  %38 = tail call fastcc ptr @cipher_by_name(ptr noundef nonnull %30)
  store ptr %38, ptr %1, align 8, !tbaa !24
  store i8 %32, ptr %storemerge, align 1, !tbaa !6
  store ptr %36, ptr %3, align 8, !tbaa !11
  %39 = icmp eq ptr %38, null
  br i1 %39, label %40, label %41

40:                                               ; preds = %37
  tail call void @ERR_put_error(i32 noundef 9, i32 noundef 0, i32 noundef 114, ptr noundef nonnull @.str.8, i32 noundef 466) #12
  br label %45

41:                                               ; preds = %37
  %42 = getelementptr inbounds nuw i8, ptr %1, i64 8
  %43 = tail call i32 @EVP_CIPHER_iv_length(ptr noundef nonnull %38) #12
  %44 = call fastcc i32 @load_iv(ptr noundef %3, ptr noundef nonnull %42, i32 noundef %43)
  br label %45

45:                                               ; preds = %41, %13, %10, %2, %5, %5, %40, %28, %24, %19, %9
  %.0 = phi i32 [ 0, %9 ], [ 0, %19 ], [ 0, %24 ], [ 0, %28 ], [ 0, %40 ], [ 1, %5 ], [ 1, %5 ], [ 1, %2 ], [ 0, %10 ], [ 0, %13 ], [ %44, %41 ]
  ret i32 %.0
}